; Function Attrs: mustprogress nofree norecurse nosync nounwind willreturn memory(read, inaccessiblemem: none) uwtable
define noundef zeroext i1 @_ZNK32pxrInternal_v0_24__pxrReserved__7SdfPath14IsAbsolutePathEv(ptr nocapture noundef nonnull readonly align 4 dereferenceable(8) %0) local_unnamed_addr #8 align 2 personality ptr @__gxx_personality_v0 {
  %2 = load i32, ptr %0, align 4
  %.not = icmp eq i32 %2, 0
  br i1 %.not, label %16, label %3

3:                                                ; preds = %1
  %4 = and i32 %2, 255
  %5 = lshr i32 %2, 8
  %6 = zext nneg i32 %4 to i64
  %7 = getelementptr inbounds [257 x ptr], ptr @_ZN32pxrInternal_v0_24__pxrReserved__8Sdf_PoolINS_15Sdf_PathPrimTagELj24ELj8ELj16384EE13_regionStartsE, i64 0, i64 %6
  %8 = load ptr, ptr %7, align 8
  %9 = mul nuw nsw i32 %5, 24
  %10 = zext nneg i32 %9 to i64
  %11 = getelementptr inbounds i8, ptr %8, i64 %10
  %12 = getelementptr inbounds nuw i8, ptr %11, i64 15
  %13 = load i8, ptr %12, align 1
  %14 = and i8 %13, 1
  %15 = icmp ne i8 %14, 0
  br label %16

16:                                               ; preds = %3, %1
  %17 = phi i1 [ false, %1 ], [ %15, %3 ]
  ret i1 %17
}